target datalayout = "e-m:e-p270:32:32-p271:32:32-p272:64:64-i64:64-i128:128-f80:128-n8:16:32:64-S128"
target triple = "x86_64-pc-linux-gnu"

%struct._value_string_ext = type { ptr, i32, i32, ptr, ptr }

@isns_function_ids_ext = internal global %struct._value_string_ext { ptr @_try_val_to_str_ext_init, i32 0, i32 33, ptr @isns_function_ids, ptr @.str.252 }, align 8

; Function Attrs: nounwind uwtable
define internal i32 @dissect_isns_udp(ptr noundef %0, ptr noundef %1, ptr noundef %2, ptr noundef %3) #0 {
  %5 = alloca i32, align 4
  %6 = alloca ptr, align 8
  %7 = alloca ptr, align 8
  %8 = alloca ptr, align 8
  %9 = alloca ptr, align 8
  %10 = alloca i32, align 4
  %11 = alloca i16, align 2
  %12 = alloca i16, align 2
  store ptr %0, ptr %6, align 8
  store ptr %1, ptr %7, align 8
  store ptr %2, ptr %8, align 8
  store ptr %3, ptr %9, align 8
  %13 = load ptr, ptr %6, align 8
  %14 = call i32 @tvb_captured_length(ptr noundef %13)
  store i32 %14, ptr %10, align 4
  %15 = load i32, ptr %10, align 4
  %16 = icmp slt i32 %15, 12
  br i1 %16, label %17, label %18

17:                                               ; preds = %4
  store i32 0, ptr %5, align 4
  br label %40

18:                                               ; preds = %4
  %19 = load ptr, ptr %6, align 8
  %20 = call zeroext i16 @tvb_get_ntohs(ptr noundef %19, i32 noundef 0)
  store i16 %20, ptr %11, align 2
  %21 = load i16, ptr %11, align 2
  %22 = zext i16 %21 to i32
  %23 = icmp ne i32 %22, 1
  br i1 %23, label %24, label %25

24:                                               ; preds = %18
  store i32 0, ptr %5, align 4
  br label %40

25:                                               ; preds = %18
  %26 = load ptr, ptr %6, align 8
  %27 = call zeroext i16 @tvb_get_ntohs(ptr noundef %26, i32 noundef 2)
  store i16 %27, ptr %12, align 2
  %28 = load i16, ptr %12, align 2
  %29 = zext i16 %28 to i32
  %30 = call ptr @try_val_to_str_ext(i32 noundef %29, ptr noundef @isns_function_ids_ext)
  %31 = icmp eq ptr %30, null
  br i1 %31, label %32, label %33

32:                                               ; preds = %25
  store i32 0, ptr %5, align 4
  br label %40

33:                                               ; preds = %25
  %34 = load ptr, ptr %6, align 8
  %35 = load ptr, ptr %7, align 8
  %36 = load ptr, ptr %8, align 8
  %37 = load ptr, ptr %9, align 8
  %38 = call i32 @dissect_isns_pdu(ptr noundef %34, ptr noundef %35, ptr noundef %36, ptr noundef %37)
  %39 = load i32, ptr %10, align 4
  store i32 %39, ptr %5, align 4
  br label %40

40:                                               ; preds = %33, %32, %24, %17
  %41 = load i32, ptr %5, align 4
  ret i32 %41
}