; Function Attrs: nounwind uwtable
define internal range(i32 0, -2147483648) i32 @dissect_isns_udp(ptr noundef %0, ptr noundef %1, ptr noundef %2, ptr noundef readnone captures(none) %3) #0 {
  %5 = tail call i32 @tvb_captured_length(ptr noundef %0) #3
  %6 = icmp slt i32 %5, 12
  br i1 %6, label %16, label %7

7:                                                ; preds = %4
  %8 = tail call zeroext i16 @tvb_get_ntohs(ptr noundef %0, i32 noundef 0) #3
  %.not = icmp eq i16 %8, 1
  br i1 %.not, label %9, label %16

9:                                                ; preds = %7
  %10 = tail call zeroext i16 @tvb_get_ntohs(ptr noundef %0, i32 noundef 2) #3
  %11 = zext i16 %10 to i32
  %12 = tail call ptr @try_val_to_str_ext(i32 noundef %11, ptr noundef nonnull @isns_function_ids_ext) #3
  %13 = icmp eq ptr %12, null
  br i1 %13, label %16, label %14

14:                                               ; preds = %9
  %15 = tail call i32 @dissect_isns_pdu(ptr noundef %0, ptr noundef %1, ptr noundef %2, ptr poison)
  br label %16

16:                                               ; preds = %9, %7, %4, %14
  %.0 = phi i32 [ %5, %14 ], [ 0, %4 ], [ 0, %7 ], [ 0, %9 ]
  ret i32 %.0
}